; Function Attrs: mustprogress nofree norecurse nosync nounwind willreturn memory(read, inaccessiblemem: none) uwtable
define noundef zeroext i1 @_ZNK7Imf_3_419DeepTiledOutputFile12isValidLevelEii(ptr noundef nonnull readonly align 8 captures(none) dereferenceable(16) %0, i32 noundef %1, i32 noundef %2) local_unnamed_addr #17 align 2 {
  %4 = or i32 %2, %1
  %or.cond.not = icmp sgt i32 %4, -1
  br i1 %or.cond.not, label %5, label %17

5:                                                ; preds = %3
  %6 = getelementptr inbounds nuw i8, ptr %0, i64 8
  %7 = load ptr, ptr %6, align 8, !tbaa !126
  %8 = getelementptr inbounds nuw i8, ptr %7, i64 72
  %9 = load i32, ptr %8, align 8, !tbaa !161
  %10 = icmp ne i32 %9, 1
  %.not = icmp eq i32 %1, %2
  %or.cond = or i1 %.not, %10
  br i1 %or.cond, label %11, label %17

11:                                               ; preds = %5
  %12 = getelementptr inbounds nuw i8, ptr %7, i64 212
  %13 = load i32, ptr %12, align 4, !tbaa !162
  %.not10 = icmp slt i32 %1, %13
  br i1 %.not10, label %14, label %17

14:                                               ; preds = %11
  %15 = getelementptr inbounds nuw i8, ptr %7, i64 216
  %16 = load i32, ptr %15, align 8, !tbaa !163
  %.not11 = icmp slt i32 %2, %16
  br label %17

17:                                               ; preds = %14, %11, %5, %3
  %.0 = phi i1 [ false, %3 ], [ false, %5 ], [ false, %11 ], [ %.not11, %14 ]
  ret i1 %.0
}